Certificate:
    Data:
        Version: 3 (0x2)
        Serial Number: 1 (0x1)
    Signature Algorithm: sha256WithRSAEncryption
        Issuer: C=US, ST=California, L=Sunnyvale, O=Openstack, OU=Keystone, CN=KeystoneCA/emailAddress=haneef.ali@hp.com
        Validity
            Not Before: Dec  2 23:55:28 2014 GMT
            Not After : Nov 29 23:55:28 2024 GMT
        Subject: C=US, ST=California, L=Sunnyvale, O=Openstack, OU=Keystone, CN=keystone_idp/emailAddress=haneef.ali@hp.com
        Subject Public Key Info:
            Public Key Algorithm: rsaEncryption
                Public-Key: (2048 bit)
                Modulus:
                    00:fd:0d:5f:6e:c7:b1:31:66:4a:ae:7d:5c:ad:d8:
                    fb:d5:2c:c5:6b:b3:2a:a9:3c:cd:55:0b:a2:4c:f5:
                    99:c0:b9:df:c7:03:f4:29:6a:cb:c8:a2:0d:83:fd:
                    ff:8a:8c:ab:00:2a:d1:1c:8d:10:f9:25:f2:73:9b:
                    bb:94:22:0c:cc:10:05:e6:a1:dd:a1:87:d3:79:19:
                    4c:aa:0b:51:4b:f6:3c:b8:13:a8:5c:be:82:e8:2a:
                    47:09:50:8d:c0:13:7c:71:b6:dd:9a:c7:de:ce:9a:
                    f7:41:51:02:51:c7:b5:67:0c:94:17:be:27:51:24:
                    a1:54:b8:3f:81:94:49:02:eb:ec:7f:28:93:a2:7e:
                    7e:6b:35:66:4e:7d:f3:75:be:b0:fe:7a:e0:2d:9a:
                    9a:58:88:9f:03:99:67:df:45:4d:35:e6:f6:4a:d2:
                    69:98:85:b0:1f:25:77:6e:a4:1f:0d:5d:55:44:a7:
                    83:62:07:a8:e6:c4:15:88:00:c8:88:0f:73:a4:e0:
                    13:a9:c0:29:d1:40:57:09:ab:c3:55:da:85:3b:52:
                    ce:29:76:27:90:1f:31:00:65:ac:2e:f4:79:9b:f6:
                    cc:c1:f8:00:c1:26:e9:6b:61:f3:ce:3c:01:f2:35:
                    65:a8:bf:86:5b:a0:01:4c:cb:f7:15:b9:35:95:d2:
                    94:cf
                Exponent: 65537 (0x10001)
        X509v3 extensions:
            X509v3 Subject Key Identifier: 
                E9:56:55:95:61:9E:E5:C9:5A:51:44:35:BA:0E:4A:10:7B:D8:64:31
            X509v3 Authority Key Identifier: 
                keyid:65:C6:EE:E2:D0:63:B3:73:D2:5F:E1:16:44:34:6D:5F:4E:06:B7:FB

            X509v3 Basic Constraints: 
                CA:FALSE
            X509v3 Key Usage: 
                Digital Signature, Non Repudiation, Key Encipherment
    Signature Algorithm: sha256WithRSAEncryption
         a0:03:bc:18:62:aa:d7:06:f5:42:27:0f:2f:ff:4b:3f:5b:59:
         4c:af:aa:3b:e3:23:21:02:a6:4e:7d:6f:0f:13:13:21:b7:95:
         69:4a:f4:a2:3d:a3:fa:ba:a2:56:83:90:26:fb:66:51:d7:bb:
         c1:53:88:0c:3d:d5:22:49:14:2d:8e:fc:98:21:b5:ba:ad:58:
         00:17:cf:09:53:37:cc:8d:d0:62:ed:00:f3:d9:47:99:20:df:
         7f:9e:81:20:51:3f:cf:08:aa:42:71:20:4c:c8:95:96:7e:c4:
         0e:9f:17:bc:ec:b1:3d:94:16:e9:a9:5f:88:ed:b9:71:2f:b0:
         1e:ae:af:9f:f7:70:1b:02:0e:ad:04:41:f4:30:72:08:66:ca:
         32:69:18:57:63:fe:a2:b1:79:50:88:65:f9:4e:ba:1f:9d:4a:
         33:d2:0b:1e:36:35:01:35:ad:20:8c:63:da:a2:ef:20:b0:fa:
         51:a0:16:06:92:17:2f:83:d6:78:47:ce:e4:c9:0b:90:53:61:
         82:cc:6c:0f:91:d8:69:17:3b:ac:a2:82:53:2e:47:29:65:49:
         19:cc:ff:e5:9f:09:40:90:75:67:f9:e4:66:bc:39:cb:82:e7:
         e4:de:49:ea:be:a9:d3:ba:28:c1:52:69:da:ff:39:8e:b5:77:
         43:4d:7a:d8
-----BEGIN CERTIFICATE-----
MIIEATCCAumgAwIBAgIBATANBgkqhkiG9w0BAQsFADCBlDELMAkGA1UEBhMCVVMx
EzARBgNVBAgMCkNhbGlmb3JuaWExEjAQBgNVBAcMCVN1bm55dmFsZTESMBAGA1UE
CgwJT3BlbnN0YWNrMREwDwYDVQQLDAhLZXlzdG9uZTETMBEGA1UEAwwKS2V5c3Rv
bmVDQTEgMB4GCSqGSIb3DQEJARYRaGFuZWVmLmFsaUBocC5jb20wHhcNMTQxMjAy
MjM1NTI4WhcNMjQxMTI5MjM1NTI4WjCBljELMAkGA1UEBhMCVVMxEzARBgNVBAgM
CkNhbGlmb3JuaWExEjAQBgNVBAcMCVN1bm55dmFsZTESMBAGA1UECgwJT3BlbnN0
YWNrMREwDwYDVQQLDAhLZXlzdG9uZTEVMBMGA1UEAwwMa2V5c3RvbmVfaWRwMSAw
HgYJKoZIhvcNAQkBFhFoYW5lZWYuYWxpQGhwLmNvbTCCASIwDQYJKoZIhvcNAQEB
BQADggEPADCCAQoCggEBAP0NX27HsTFmSq59XK3Y+9UsxWuzKqk8zVULokz1mcC5
38cD9Clqy8iiDYP9/4qMqwAq0RyNEPkl8nObu5QiDMwQBeah3aGH03kZTKoLUUv2
PLgTqFy+gugqRwlQjcATfHG23ZrH3s6a90FRAlHHtWcMlBe+J1EkoVS4P4GUSQLr
7H8ok6J+fms1Zk5983W+sP564C2amliInwOZZ99FTTXm9krSaZiFsB8ld26kHw1d
VUSng2IHqObEFYgAyIgPc6TgE6nAKdFAVwmrw1XahTtSzil2J5AfMQBlrC70eZv2
zMH4AMEm6Wth8848AfI1Zai/hlugAUzL9xW5NZXSlM8CAwEAAaNaMFgwHQYDVR0O
BBYEFOlWVZVhnuXJWlFENboOShB72GQxMB8GA1UdIwQYMBaAFGXG7uLQY7Nz0l/h
FkQ0bV9OBrf7MAkGA1UdEwQCMAAwCwYDVR0PBAQDAgXgMA0GCSqGSIb3DQEBCwUA
A4IBAQCgA7wYYqrXBvVCJw8v/0s/W1lMr6o74yMhAqZOfW8PExMht5VpSvSiPaP6
uqJWg5Am+2ZR17vBU4gMPdUiSRQtjvyYIbW6rVgAF88JUzfMjdBi7QDz2UeZIN9/
noEgUT/PCKpCcSBMyJWWfsQOnxe87LE9lBbpqV+I7blxL7Aerq+f93AbAg6tBEH0
MHIIZsoyaRhXY/6isXlQiGX5TrofnUoz0gseNjUBNa0gjGPaou8gsPpRoBYGkhcv
g9Z4R87kyQuQU2GCzGwPkdhpFzusooJTLkcpZUkZzP/lnwlAkHVn+eRmvDnLgufk
3knqvqnTuijBUmna/zmOtXdDTXrY
-----END CERTIFICATE-----
